; Function Attrs: mustprogress nofree norecurse nosync nounwind memory(readwrite, inaccessiblemem: none) uwtable
define noundef zeroext i1 @_ZNK10open_spiel11negotiation16NegotiationState12NextProposalEPSt6vectorIiSaIiEE(ptr nocapture noundef nonnull readonly align 8 dereferenceable(208) %0, ptr nocapture noundef readonly %1) local_unnamed_addr #10 align 2 {
  %3 = getelementptr inbounds nuw i8, ptr %0, i64 76
  %4 = load i32, ptr %3, align 4
  %5 = getelementptr inbounds nuw i8, ptr %0, i64 112
  %6 = load ptr, ptr %5, align 8
  %7 = zext i32 %4 to i64
  br label %8

8:                                                ; preds = %11, %2
  %indvars.iv = phi i64 [ %12, %11 ], [ %7, %2 ]
  %9 = trunc nuw i64 %indvars.iv to i32
  %10 = icmp sgt i32 %9, 0
  br i1 %10, label %11, label %.loopexit

11:                                               ; preds = %8
  %12 = add nsw i64 %indvars.iv, -1
  %13 = load ptr, ptr %1, align 8
  %14 = getelementptr inbounds i32, ptr %13, i64 %12
  %15 = load i32, ptr %14, align 4
  %16 = getelementptr inbounds i32, ptr %6, i64 %12
  %17 = load i32, ptr %16, align 4
  %.not.not = icmp slt i32 %15, %17
  br i1 %.not.not, label %18, label %8, !llvm.loop !100

18:                                               ; preds = %11
  %19 = getelementptr inbounds i32, ptr %13, i64 %12
  %20 = add nsw i32 %15, 1
  store i32 %20, ptr %19, align 4
  %21 = load i32, ptr %3, align 4
  %22 = icmp sgt i32 %21, %9
  br i1 %22, label %.lr.ph, label %.loopexit

.lr.ph:                                           ; preds = %18, %.lr.ph
  %indvars.iv32 = phi i64 [ %indvars.iv.next33, %.lr.ph ], [ %indvars.iv, %18 ]
  %23 = load ptr, ptr %1, align 8
  %24 = getelementptr inbounds i32, ptr %23, i64 %indvars.iv32
  store i32 0, ptr %24, align 4
  %indvars.iv.next33 = add nuw nsw i64 %indvars.iv32, 1
  %25 = load i32, ptr %3, align 4
  %26 = trunc nuw i64 %indvars.iv.next33 to i32
  %27 = icmp sgt i32 %25, %26
  br i1 %27, label %.lr.ph, label %.loopexit, !llvm.loop !101

.loopexit:                                        ; preds = %8, %.lr.ph, %18
  ret i1 %10
}